; Function Attrs: inlinehint mustprogress nounwind uwtable
define internal void @_ZN12_GLOBAL__N_118reduce_args_tacticD0Ev(ptr noundef nonnull align 8 dereferenceable(80) initializes((0, 8)) %0) unnamed_addr #5 align 2 personality ptr @__gxx_personality_v0 {
  store ptr getelementptr inbounds nuw inrange(-16, 192) (i8, ptr @_ZTVN12_GLOBAL__N_118reduce_args_tacticE, i64 16), ptr %0, align 8, !tbaa !9
  %2 = getelementptr inbounds nuw i8, ptr %0, i64 16
  %3 = getelementptr inbounds nuw i8, ptr %0, i64 24
  %4 = load ptr, ptr %3, align 8, !tbaa !14
  %5 = icmp eq ptr %4, null
  br i1 %5, label %_ZN12_GLOBAL__N_118reduce_args_tacticD2Ev.exit, label %_ZNK6vectorIP4exprLb0EjE4sizeEv.exit.i.i

_ZNK6vectorIP4exprLb0EjE4sizeEv.exit.i.i:         ; preds = %1
  %6 = getelementptr inbounds i8, ptr %4, i64 -4
  %7 = load i32, ptr %6, align 4, !tbaa !18
  %8 = zext i32 %7 to i64
  %9 = getelementptr inbounds nuw ptr, ptr %4, i64 %8
  %.not.i.i = icmp eq i32 %7, 0
  br i1 %.not.i.i, label %_ZN15ref_vector_coreI4expr19ref_manager_wrapperIS0_11ast_managerEE13dec_range_refEPKPS0_S7_.exit.thread4.i.i, label %.lr.ph.i.i.i

.lr.ph.i.i.i:                                     ; preds = %_ZNK6vectorIP4exprLb0EjE4sizeEv.exit.i.i, %_ZN15ref_vector_coreI4expr19ref_manager_wrapperIS0_11ast_managerEE7dec_refEPS0_.exit.i.i.i
  %.06.i.i.i = phi ptr [ %18, %_ZN15ref_vector_coreI4expr19ref_manager_wrapperIS0_11ast_managerEE7dec_refEPS0_.exit.i.i.i ], [ %4, %_ZNK6vectorIP4exprLb0EjE4sizeEv.exit.i.i ]
  %10 = load ptr, ptr %.06.i.i.i, align 8, !tbaa !19
  %11 = load ptr, ptr %2, align 8, !tbaa !21
  %.not.i.i.i.i.i.i = icmp eq ptr %10, null
  br i1 %.not.i.i.i.i.i.i, label %_ZN15ref_vector_coreI4expr19ref_manager_wrapperIS0_11ast_managerEE7dec_refEPS0_.exit.i.i.i, label %12

12:                                               ; preds = %.lr.ph.i.i.i
  %13 = getelementptr inbounds nuw i8, ptr %10, i64 8
  %14 = load i32, ptr %13, align 4, !tbaa !23
  %15 = add i32 %14, -1
  store i32 %15, ptr %13, align 4, !tbaa !23
  %16 = icmp eq i32 %15, 0
  br i1 %16, label %17, label %_ZN15ref_vector_coreI4expr19ref_manager_wrapperIS0_11ast_managerEE7dec_refEPS0_.exit.i.i.i

17:                                               ; preds = %12
  invoke void @_ZN11ast_manager11delete_nodeEP3ast(ptr noundef nonnull align 8 dereferenceable(976) %11, ptr noundef nonnull %10)
          to label %_ZN15ref_vector_coreI4expr19ref_manager_wrapperIS0_11ast_managerEE7dec_refEPS0_.exit.i.i.i unwind label %25

_ZN15ref_vector_coreI4expr19ref_manager_wrapperIS0_11ast_managerEE7dec_refEPS0_.exit.i.i.i: ; preds = %17, %12, %.lr.ph.i.i.i
  %18 = getelementptr inbounds nuw i8, ptr %.06.i.i.i, i64 8
  %19 = icmp ult ptr %18, %9
  br i1 %19, label %.lr.ph.i.i.i, label %_ZN15ref_vector_coreI4expr19ref_manager_wrapperIS0_11ast_managerEE13dec_range_refEPKPS0_S7_.exit.i.i, !llvm.loop !25

_ZN15ref_vector_coreI4expr19ref_manager_wrapperIS0_11ast_managerEE13dec_range_refEPKPS0_S7_.exit.i.i: ; preds = %_ZN15ref_vector_coreI4expr19ref_manager_wrapperIS0_11ast_managerEE7dec_refEPS0_.exit.i.i.i
  %.pre.i.i = load ptr, ptr %3, align 8, !tbaa !14
  %.not.i.i.i.i = icmp eq ptr %.pre.i.i, null
  br i1 %.not.i.i.i.i, label %_ZN12_GLOBAL__N_118reduce_args_tacticD2Ev.exit, label %_ZN15ref_vector_coreI4expr19ref_manager_wrapperIS0_11ast_managerEE13dec_range_refEPKPS0_S7_.exit.thread4.i.i

_ZN15ref_vector_coreI4expr19ref_manager_wrapperIS0_11ast_managerEE13dec_range_refEPKPS0_S7_.exit.thread4.i.i: ; preds = %_ZN15ref_vector_coreI4expr19ref_manager_wrapperIS0_11ast_managerEE13dec_range_refEPKPS0_S7_.exit.i.i, %_ZNK6vectorIP4exprLb0EjE4sizeEv.exit.i.i
  %20 = phi ptr [ %.pre.i.i, %_ZN15ref_vector_coreI4expr19ref_manager_wrapperIS0_11ast_managerEE13dec_range_refEPKPS0_S7_.exit.i.i ], [ %4, %_ZNK6vectorIP4exprLb0EjE4sizeEv.exit.i.i ]
  %21 = getelementptr inbounds i8, ptr %20, i64 -8
  invoke void @_ZN6memory10deallocateEPv(ptr noundef nonnull %21)
          to label %_ZN12_GLOBAL__N_118reduce_args_tacticD2Ev.exit unwind label %22

22:                                               ; preds = %_ZN15ref_vector_coreI4expr19ref_manager_wrapperIS0_11ast_managerEE13dec_range_refEPKPS0_S7_.exit.thread4.i.i
  %23 = landingpad { ptr, i32 }
          catch ptr null
  %24 = extractvalue { ptr, i32 } %23, 0
  tail call void @__clang_call_terminate(ptr %24) #21
  unreachable

25:                                               ; preds = %17
  %26 = landingpad { ptr, i32 }
          catch ptr null
  %27 = extractvalue { ptr, i32 } %26, 0
  tail call void @__clang_call_terminate(ptr %27) #21
  unreachable

_ZN12_GLOBAL__N_118reduce_args_tacticD2Ev.exit:   ; preds = %1, %_ZN15ref_vector_coreI4expr19ref_manager_wrapperIS0_11ast_managerEE13dec_range_refEPKPS0_S7_.exit.i.i, %_ZN15ref_vector_coreI4expr19ref_manager_wrapperIS0_11ast_managerEE13dec_range_refEPKPS0_S7_.exit.thread4.i.i
  tail call void @_ZdlPvm(ptr noundef nonnull %0, i64 noundef 80) #22
  ret void
}